; Function Attrs: nofree nosync nounwind memory(read, inaccessiblemem: none) uwtable
define internal fastcc i32 @_core_child_count(ptr noundef readonly captures(none) %0) unnamed_addr #7 {
  %2 = load i32, ptr %0, align 8
  %3 = icmp eq i32 %2, 2
  br i1 %3, label %.loopexit, label %.preheader

.preheader:                                       ; preds = %1
  %4 = getelementptr inbounds nuw i8, ptr %0, i64 104
  %5 = load i32, ptr %4, align 8
  %.not = icmp eq i32 %5, 0
  br i1 %.not, label %.loopexit, label %.lr.ph

.lr.ph:                                           ; preds = %.preheader
  %6 = getelementptr inbounds nuw i8, ptr %0, i64 112
  %7 = load ptr, ptr %6, align 8
  %wide.trip.count = zext i32 %5 to i64
  br label %8

8:                                                ; preds = %.lr.ph, %8
  %indvars.iv = phi i64 [ 0, %.lr.ph ], [ %indvars.iv.next, %8 ]
  %.091 = phi i32 [ 0, %.lr.ph ], [ %12, %8 ]
  %9 = getelementptr inbounds nuw ptr, ptr %7, i64 %indvars.iv
  %10 = load ptr, ptr %9, align 8
  %11 = tail call fastcc i32 @_core_child_count(ptr noundef %10)
  %12 = add nsw i32 %11, %.091
  %indvars.iv.next = add nuw nsw i64 %indvars.iv, 1
  %exitcond.not = icmp eq i64 %indvars.iv.next, %wide.trip.count
  br i1 %exitcond.not, label %.loopexit, label %8, !llvm.loop !24

.loopexit:                                        ; preds = %8, %.preheader, %1
  %.010 = phi i32 [ 1, %1 ], [ 0, %.preheader ], [ %12, %8 ]
  ret i32 %.010
}